target datalayout = "e-m:e-p270:32:32-p271:32:32-p272:64:64-i64:64-i128:128-f80:128-n8:16:32:64-S128"
target triple = "x86_64-pc-linux-gnu"

%struct._generic_ARKInterp = type { ptr, ptr }
%struct._ARKInterpContent_Lagrange = type { i32, i32, ptr, ptr, i32, double }

@.str.8 = private unnamed_addr constant [37 x i8] c"arkode_interp (Lagrange): nmax = %i\0A\00", align 1
@.str.9 = private unnamed_addr constant [38 x i8] c"arkode_interp (Lagrange): nhist = %i\0A\00", align 1
@.str.10 = private unnamed_addr constant [34 x i8] c"arkode_interp (Lagrange): thist =\00", align 1
@.str.11 = private unnamed_addr constant [8 x i8] c"  %.16g\00", align 1
@.str.12 = private unnamed_addr constant [2 x i8] c"\0A\00", align 1
@.str.13 = private unnamed_addr constant [39 x i8] c"arkode_interp (Lagrange): yhist ptrs =\00", align 1
@.str.14 = private unnamed_addr constant [5 x i8] c"  %p\00", align 1

; Function Attrs: nounwind uwtable
define void @arkInterpPrintMem_Lagrange(ptr noundef %0, ptr noundef %1) #0 {
  %3 = alloca ptr, align 8
  %4 = alloca ptr, align 8
  %5 = alloca i32, align 4
  store ptr %0, ptr %3, align 8, !tbaa !8
  store ptr %1, ptr %4, align 8, !tbaa !21
  call void @llvm.lifetime.start.p0(i64 4, ptr %5) #7
  %6 = load ptr, ptr %3, align 8, !tbaa !8
  %7 = icmp ne ptr %6, null
  br i1 %7, label %8, label %95

8:                                                ; preds = %2
  %9 = load ptr, ptr %4, align 8, !tbaa !21
  %10 = load ptr, ptr %3, align 8, !tbaa !8
  %11 = getelementptr inbounds nuw %struct._generic_ARKInterp, ptr %10, i32 0, i32 0
  %12 = load ptr, ptr %11, align 8, !tbaa !35
  %13 = getelementptr inbounds nuw %struct._ARKInterpContent_Lagrange, ptr %12, i32 0, i32 0
  %14 = load i32, ptr %13, align 8, !tbaa !62
  %15 = call i32 (ptr, ptr, ...) @fprintf(ptr noundef %9, ptr noundef @.str.8, i32 noundef %14) #7
  %16 = load ptr, ptr %4, align 8, !tbaa !21
  %17 = load ptr, ptr %3, align 8, !tbaa !8
  %18 = getelementptr inbounds nuw %struct._generic_ARKInterp, ptr %17, i32 0, i32 0
  %19 = load ptr, ptr %18, align 8, !tbaa !35
  %20 = getelementptr inbounds nuw %struct._ARKInterpContent_Lagrange, ptr %19, i32 0, i32 4
  %21 = load i32, ptr %20, align 8, !tbaa !67
  %22 = call i32 (ptr, ptr, ...) @fprintf(ptr noundef %16, ptr noundef @.str.9, i32 noundef %21) #7
  %23 = load ptr, ptr %3, align 8, !tbaa !8
  %24 = getelementptr inbounds nuw %struct._generic_ARKInterp, ptr %23, i32 0, i32 0
  %25 = load ptr, ptr %24, align 8, !tbaa !35
  %26 = getelementptr inbounds nuw %struct._ARKInterpContent_Lagrange, ptr %25, i32 0, i32 3
  %27 = load ptr, ptr %26, align 8, !tbaa !68
  %28 = icmp ne ptr %27, null
  br i1 %28, label %29, label %58

29:                                               ; preds = %8
  %30 = load ptr, ptr %4, align 8, !tbaa !21
  %31 = call i32 (ptr, ptr, ...) @fprintf(ptr noundef %30, ptr noundef @.str.10) #7
  store i32 0, ptr %5, align 4, !tbaa !24
  br label %32

32:                                               ; preds = %52, %29
  %33 = load i32, ptr %5, align 4, !tbaa !24
  %34 = load ptr, ptr %3, align 8, !tbaa !8
  %35 = getelementptr inbounds nuw %struct._generic_ARKInterp, ptr %34, i32 0, i32 0
  %36 = load ptr, ptr %35, align 8, !tbaa !35
  %37 = getelementptr inbounds nuw %struct._ARKInterpContent_Lagrange, ptr %36, i32 0, i32 0
  %38 = load i32, ptr %37, align 8, !tbaa !62
  %39 = icmp slt i32 %33, %38
  br i1 %39, label %40, label %55

40:                                               ; preds = %32
  %41 = load ptr, ptr %4, align 8, !tbaa !21
  %42 = load ptr, ptr %3, align 8, !tbaa !8
  %43 = getelementptr inbounds nuw %struct._generic_ARKInterp, ptr %42, i32 0, i32 0
  %44 = load ptr, ptr %43, align 8, !tbaa !35
  %45 = getelementptr inbounds nuw %struct._ARKInterpContent_Lagrange, ptr %44, i32 0, i32 3
  %46 = load ptr, ptr %45, align 8, !tbaa !68
  %47 = load i32, ptr %5, align 4, !tbaa !24
  %48 = sext i32 %47 to i64
  %49 = getelementptr inbounds double, ptr %46, i64 %48
  %50 = load double, ptr %49, align 8, !tbaa !27
  %51 = call i32 (ptr, ptr, ...) @fprintf(ptr noundef %41, ptr noundef @.str.11, double noundef %50) #7
  br label %52

52:                                               ; preds = %40
  %53 = load i32, ptr %5, align 4, !tbaa !24
  %54 = add nsw i32 %53, 1
  store i32 %54, ptr %5, align 4, !tbaa !24
  br label %32

55:                                               ; preds = %32
  %56 = load ptr, ptr %4, align 8, !tbaa !21
  %57 = call i32 (ptr, ptr, ...) @fprintf(ptr noundef %56, ptr noundef @.str.12) #7
  br label %58

58:                                               ; preds = %55, %8
  %59 = load ptr, ptr %3, align 8, !tbaa !8
  %60 = getelementptr inbounds nuw %struct._generic_ARKInterp, ptr %59, i32 0, i32 0
  %61 = load ptr, ptr %60, align 8, !tbaa !35
  %62 = getelementptr inbounds nuw %struct._ARKInterpContent_Lagrange, ptr %61, i32 0, i32 2
  %63 = load ptr, ptr %62, align 8, !tbaa !69
  %64 = icmp ne ptr %63, null
  br i1 %64, label %65, label %94

65:                                               ; preds = %58
  %66 = load ptr, ptr %4, align 8, !tbaa !21
  %67 = call i32 (ptr, ptr, ...) @fprintf(ptr noundef %66, ptr noundef @.str.13) #7
  store i32 0, ptr %5, align 4, !tbaa !24
  br label %68

68:                                               ; preds = %88, %65
  %69 = load i32, ptr %5, align 4, !tbaa !24
  %70 = load ptr, ptr %3, align 8, !tbaa !8
  %71 = getelementptr inbounds nuw %struct._generic_ARKInterp, ptr %70, i32 0, i32 0
  %72 = load ptr, ptr %71, align 8, !tbaa !35
  %73 = getelementptr inbounds nuw %struct._ARKInterpContent_Lagrange, ptr %72, i32 0, i32 0
  %74 = load i32, ptr %73, align 8, !tbaa !62
  %75 = icmp slt i32 %69, %74
  br i1 %75, label %76, label %91

76:                                               ; preds = %68
  %77 = load ptr, ptr %4, align 8, !tbaa !21
  %78 = load ptr, ptr %3, align 8, !tbaa !8
  %79 = getelementptr inbounds nuw %struct._generic_ARKInterp, ptr %78, i32 0, i32 0
  %80 = load ptr, ptr %79, align 8, !tbaa !35
  %81 = getelementptr inbounds nuw %struct._ARKInterpContent_Lagrange, ptr %80, i32 0, i32 2
  %82 = load ptr, ptr %81, align 8, !tbaa !69
  %83 = load i32, ptr %5, align 4, !tbaa !24
  %84 = sext i32 %83 to i64
  %85 = getelementptr inbounds ptr, ptr %82, i64 %84
  %86 = load ptr, ptr %85, align 8, !tbaa !13
  %87 = call i32 (ptr, ptr, ...) @fprintf(ptr noundef %77, ptr noundef @.str.14, ptr noundef %86) #7
  br label %88

88:                                               ; preds = %76
  %89 = load i32, ptr %5, align 4, !tbaa !24
  %90 = add nsw i32 %89, 1
  store i32 %90, ptr %5, align 4, !tbaa !24
  br label %68

91:                                               ; preds = %68
  %92 = load ptr, ptr %4, align 8, !tbaa !21
  %93 = call i32 (ptr, ptr, ...) @fprintf(ptr noundef %92, ptr noundef @.str.12) #7
  br label %94

94:                                               ; preds = %91, %58
  br label %95

95:                                               ; preds = %94, %2
  call void @llvm.lifetime.end.p0(i64 4, ptr %5) #7
  ret void
}