; Function Attrs: nofree nounwind uwtable
define void @arkInterpPrintMem_Lagrange(ptr noundef readonly captures(address_is_null) %0, ptr noundef captures(none) %1) #5 {
  %.not = icmp eq ptr %0, null
  br i1 %.not, label %48, label %3

3:                                                ; preds = %2
  %4 = load ptr, ptr %0, align 8, !tbaa !17
  %5 = load i32, ptr %4, align 8, !tbaa !49
  %6 = tail call i32 (ptr, ptr, ...) @fprintf(ptr noundef %1, ptr noundef nonnull @.str.8, i32 noundef %5) #14
  %7 = load ptr, ptr %0, align 8, !tbaa !17
  %8 = getelementptr inbounds nuw i8, ptr %7, i64 24
  %9 = load i32, ptr %8, align 8, !tbaa !57
  %10 = tail call i32 (ptr, ptr, ...) @fprintf(ptr noundef %1, ptr noundef nonnull @.str.9, i32 noundef %9) #14
  %11 = load ptr, ptr %0, align 8, !tbaa !17
  %12 = getelementptr inbounds nuw i8, ptr %11, i64 16
  %13 = load ptr, ptr %12, align 8, !tbaa !58
  %.not23 = icmp eq ptr %13, null
  br i1 %.not23, label %29, label %14

14:                                               ; preds = %3
  %15 = tail call i64 @fwrite(ptr nonnull @.str.10, i64 33, i64 1, ptr %1)
  %16 = load ptr, ptr %0, align 8, !tbaa !17
  %17 = load i32, ptr %16, align 8, !tbaa !49
  %18 = icmp sgt i32 %17, 0
  br i1 %18, label %.lr.ph, label %._crit_edge

.lr.ph:                                           ; preds = %14, %.lr.ph
  %indvars.iv = phi i64 [ %indvars.iv.next, %.lr.ph ], [ 0, %14 ]
  %19 = phi ptr [ %25, %.lr.ph ], [ %16, %14 ]
  %20 = getelementptr inbounds nuw i8, ptr %19, i64 16
  %21 = load ptr, ptr %20, align 8, !tbaa !58
  %22 = getelementptr inbounds nuw double, ptr %21, i64 %indvars.iv
  %23 = load double, ptr %22, align 8, !tbaa !47
  %24 = tail call i32 (ptr, ptr, ...) @fprintf(ptr noundef %1, ptr noundef nonnull @.str.11, double noundef %23) #14
  %indvars.iv.next = add nuw nsw i64 %indvars.iv, 1
  %25 = load ptr, ptr %0, align 8, !tbaa !17
  %26 = load i32, ptr %25, align 8, !tbaa !49
  %27 = sext i32 %26 to i64
  %28 = icmp slt i64 %indvars.iv.next, %27
  br i1 %28, label %.lr.ph, label %._crit_edge

._crit_edge:                                      ; preds = %.lr.ph, %14
  %fputc = tail call i32 @fputc(i32 10, ptr %1)
  %.pre = load ptr, ptr %0, align 8, !tbaa !17
  br label %29

29:                                               ; preds = %._crit_edge, %3
  %30 = phi ptr [ %.pre, %._crit_edge ], [ %11, %3 ]
  %31 = getelementptr inbounds nuw i8, ptr %30, i64 8
  %32 = load ptr, ptr %31, align 8, !tbaa !55
  %.not24 = icmp eq ptr %32, null
  br i1 %.not24, label %48, label %33

33:                                               ; preds = %29
  %34 = tail call i64 @fwrite(ptr nonnull @.str.13, i64 38, i64 1, ptr %1)
  %35 = load ptr, ptr %0, align 8, !tbaa !17
  %36 = load i32, ptr %35, align 8, !tbaa !49
  %37 = icmp sgt i32 %36, 0
  br i1 %37, label %.lr.ph29, label %._crit_edge30

.lr.ph29:                                         ; preds = %33, %.lr.ph29
  %indvars.iv32 = phi i64 [ %indvars.iv.next33, %.lr.ph29 ], [ 0, %33 ]
  %38 = phi ptr [ %44, %.lr.ph29 ], [ %35, %33 ]
  %39 = getelementptr inbounds nuw i8, ptr %38, i64 8
  %40 = load ptr, ptr %39, align 8, !tbaa !55
  %41 = getelementptr inbounds nuw ptr, ptr %40, i64 %indvars.iv32
  %42 = load ptr, ptr %41, align 8, !tbaa !48
  %43 = tail call i32 (ptr, ptr, ...) @fprintf(ptr noundef %1, ptr noundef nonnull @.str.14, ptr noundef %42) #14
  %indvars.iv.next33 = add nuw nsw i64 %indvars.iv32, 1
  %44 = load ptr, ptr %0, align 8, !tbaa !17
  %45 = load i32, ptr %44, align 8, !tbaa !49
  %46 = sext i32 %45 to i64
  %47 = icmp slt i64 %indvars.iv.next33, %46
  br i1 %47, label %.lr.ph29, label %._crit_edge30

._crit_edge30:                                    ; preds = %.lr.ph29, %33
  %fputc25 = tail call i32 @fputc(i32 10, ptr %1)
  br label %48

48:                                               ; preds = %29, %._crit_edge30, %2
  ret void
}